target datalayout = "e-m:e-p270:32:32-p271:32:32-p272:64:64-i64:64-i128:128-f80:128-n8:16:32:64-S128"
target triple = "x86_64-pc-linux-gnu"

%struct._object = type { %union.anon, ptr }
%union.anon = type { i64 }
%struct.rangeobject = type { %struct._object, ptr, ptr, ptr, ptr }
%struct.longrangeiterobject = type { %struct._object, ptr, ptr, ptr }
%struct._PyRangeIterObject = type { %struct._object, i64, i64, i64 }
%struct.anon = type { i32, i32 }

; Function Attrs: alwaysinline nounwind uwtable
define internal void @Py_INCREF(ptr noundef %0) #2 {
  %2 = alloca ptr, align 8
  %3 = alloca i32, align 4
  %4 = alloca i32, align 4
  store ptr %0, ptr %2, align 8, !tbaa !18
  call void @llvm.lifetime.start.p0(i64 4, ptr %3) #5
  %5 = load ptr, ptr %2, align 8, !tbaa !18
  %6 = getelementptr inbounds nuw %struct._object, ptr %5, i32 0, i32 0
  %7 = getelementptr inbounds nuw %struct.anon, ptr %6, i32 0, i32 0
  %8 = load i32, ptr %7, align 8, !tbaa !32
  store i32 %8, ptr %3, align 4, !tbaa !19
  %9 = load i32, ptr %3, align 4, !tbaa !19
  %10 = icmp slt i32 %9, 0
  br i1 %10, label %11, label %12

11:                                               ; preds = %1
  store i32 1, ptr %4, align 4
  br label %18

12:                                               ; preds = %1
  %13 = load i32, ptr %3, align 4, !tbaa !19
  %14 = add i32 %13, 1
  %15 = load ptr, ptr %2, align 8, !tbaa !18
  %16 = getelementptr inbounds nuw %struct._object, ptr %15, i32 0, i32 0
  %17 = getelementptr inbounds nuw %struct.anon, ptr %16, i32 0, i32 0
  store i32 %14, ptr %17, align 8, !tbaa !32
  store i32 0, ptr %4, align 4
  br label %18

18:                                               ; preds = %12, %11
  call void @llvm.lifetime.end.p0(i64 4, ptr %3) #5
  %19 = load i32, ptr %4, align 4
  switch i32 %19, label %21 [
    i32 0, label %20
    i32 1, label %20
  ]

20:                                               ; preds = %18, %18
  ret void

21:                                               ; preds = %18
  unreachable
}

; Function Attrs: inlinehint nounwind uwtable
define internal ptr @_Py_NewRef(ptr noundef %0) #4 {
  %2 = alloca ptr, align 8
  store ptr %0, ptr %2, align 8, !tbaa !18
  %3 = load ptr, ptr %2, align 8, !tbaa !18
  call void @Py_INCREF(ptr noundef %3)
  %4 = load ptr, ptr %2, align 8, !tbaa !18
  ret ptr %4
}

; Function Attrs: nounwind uwtable
define internal ptr @fast_range_iter(i64 noundef %0, i64 noundef %1, i64 noundef %2, i64 noundef %3) #0 {
  %5 = alloca ptr, align 8
  %6 = alloca i64, align 8
  %7 = alloca i64, align 8
  %8 = alloca i64, align 8
  %9 = alloca i64, align 8
  %10 = alloca ptr, align 8
  %11 = alloca i32, align 4
  store i64 %0, ptr %6, align 8, !tbaa !16
  store i64 %1, ptr %7, align 8, !tbaa !16
  store i64 %2, ptr %8, align 8, !tbaa !16
  store i64 %3, ptr %9, align 8, !tbaa !16
  call void @llvm.lifetime.start.p0(i64 8, ptr %10) #5
  %12 = call ptr @_PyObject_New(ptr noundef @PyRangeIter_Type)
  store ptr %12, ptr %10, align 8, !tbaa !4
  %13 = load ptr, ptr %10, align 8, !tbaa !4
  %14 = icmp eq ptr %13, null
  br i1 %14, label %15, label %16

15:                                               ; preds = %4
  store ptr null, ptr %5, align 8
  store i32 1, ptr %11, align 4
  br label %27

16:                                               ; preds = %4
  %17 = load i64, ptr %6, align 8, !tbaa !16
  %18 = load ptr, ptr %10, align 8, !tbaa !4
  %19 = getelementptr inbounds nuw %struct._PyRangeIterObject, ptr %18, i32 0, i32 1
  store i64 %17, ptr %19, align 8, !tbaa !30
  %20 = load i64, ptr %8, align 8, !tbaa !16
  %21 = load ptr, ptr %10, align 8, !tbaa !4
  %22 = getelementptr inbounds nuw %struct._PyRangeIterObject, ptr %21, i32 0, i32 2
  store i64 %20, ptr %22, align 8, !tbaa !31
  %23 = load i64, ptr %9, align 8, !tbaa !16
  %24 = load ptr, ptr %10, align 8, !tbaa !4
  %25 = getelementptr inbounds nuw %struct._PyRangeIterObject, ptr %24, i32 0, i32 3
  store i64 %23, ptr %25, align 8, !tbaa !28
  %26 = load ptr, ptr %10, align 8, !tbaa !4
  store ptr %26, ptr %5, align 8
  store i32 1, ptr %11, align 4
  br label %27

27:                                               ; preds = %16, %15
  call void @llvm.lifetime.end.p0(i64 8, ptr %10) #5
  %28 = load ptr, ptr %5, align 8
  ret ptr %28
}

; Function Attrs: nounwind uwtable
define internal i64 @get_len_of_range(i64 noundef %0, i64 noundef %1, i64 noundef %2) #0 {
  %4 = alloca i64, align 8
  %5 = alloca i64, align 8
  %6 = alloca i64, align 8
  %7 = alloca i64, align 8
  store i64 %0, ptr %5, align 8, !tbaa !16
  store i64 %1, ptr %6, align 8, !tbaa !16
  store i64 %2, ptr %7, align 8, !tbaa !16
  %8 = load i64, ptr %7, align 8, !tbaa !16
  %9 = icmp sgt i64 %8, 0
  br i1 %9, label %10, label %22

10:                                               ; preds = %3
  %11 = load i64, ptr %5, align 8, !tbaa !16
  %12 = load i64, ptr %6, align 8, !tbaa !16
  %13 = icmp slt i64 %11, %12
  br i1 %13, label %14, label %22

14:                                               ; preds = %10
  %15 = load i64, ptr %6, align 8, !tbaa !16
  %16 = sub i64 %15, 1
  %17 = load i64, ptr %5, align 8, !tbaa !16
  %18 = sub i64 %16, %17
  %19 = load i64, ptr %7, align 8, !tbaa !16
  %20 = udiv i64 %18, %19
  %21 = add i64 1, %20
  store i64 %21, ptr %4, align 8
  br label %39

22:                                               ; preds = %10, %3
  %23 = load i64, ptr %7, align 8, !tbaa !16
  %24 = icmp slt i64 %23, 0
  br i1 %24, label %25, label %38

25:                                               ; preds = %22
  %26 = load i64, ptr %5, align 8, !tbaa !16
  %27 = load i64, ptr %6, align 8, !tbaa !16
  %28 = icmp sgt i64 %26, %27
  br i1 %28, label %29, label %38

29:                                               ; preds = %25
  %30 = load i64, ptr %5, align 8, !tbaa !16
  %31 = sub i64 %30, 1
  %32 = load i64, ptr %6, align 8, !tbaa !16
  %33 = sub i64 %31, %32
  %34 = load i64, ptr %7, align 8, !tbaa !16
  %35 = sub i64 0, %34
  %36 = udiv i64 %33, %35
  %37 = add i64 1, %36
  store i64 %37, ptr %4, align 8
  br label %39

38:                                               ; preds = %25, %22
  store i64 0, ptr %4, align 8
  br label %39

39:                                               ; preds = %38, %29, %14
  %40 = load i64, ptr %4, align 8
  ret i64 %40
}

; Function Attrs: nounwind uwtable
define internal ptr @range_iter(ptr noundef %0) #0 {
  %2 = alloca ptr, align 8
  %3 = alloca ptr, align 8
  %4 = alloca ptr, align 8
  %5 = alloca ptr, align 8
  %6 = alloca i64, align 8
  %7 = alloca i64, align 8
  %8 = alloca i64, align 8
  %9 = alloca i64, align 8
  %10 = alloca i32, align 4
  store ptr %0, ptr %3, align 8, !tbaa !18
  call void @llvm.lifetime.start.p0(i64 8, ptr %4) #5
  %11 = load ptr, ptr %3, align 8, !tbaa !18
  store ptr %11, ptr %4, align 8, !tbaa !4
  call void @llvm.lifetime.start.p0(i64 8, ptr %5) #5
  call void @llvm.lifetime.start.p0(i64 8, ptr %6) #5
  call void @llvm.lifetime.start.p0(i64 8, ptr %7) #5
  call void @llvm.lifetime.start.p0(i64 8, ptr %8) #5
  call void @llvm.lifetime.start.p0(i64 8, ptr %9) #5
  %12 = load ptr, ptr %4, align 8, !tbaa !4
  %13 = getelementptr inbounds nuw %struct.rangeobject, ptr %12, i32 0, i32 1
  %14 = load ptr, ptr %13, align 8, !tbaa !8
  %15 = call i64 @PyLong_AsLong(ptr noundef %14)
  store i64 %15, ptr %6, align 8, !tbaa !16
  %16 = load i64, ptr %6, align 8, !tbaa !16
  %17 = icmp eq i64 %16, -1
  br i1 %17, label %18, label %22

18:                                               ; preds = %1
  %19 = call ptr @PyErr_Occurred()
  %20 = icmp ne ptr %19, null
  br i1 %20, label %21, label %22

21:                                               ; preds = %18
  call void @PyErr_Clear()
  br label %81

22:                                               ; preds = %18, %1
  %23 = load ptr, ptr %4, align 8, !tbaa !4
  %24 = getelementptr inbounds nuw %struct.rangeobject, ptr %23, i32 0, i32 2
  %25 = load ptr, ptr %24, align 8, !tbaa !13
  %26 = call i64 @PyLong_AsLong(ptr noundef %25)
  store i64 %26, ptr %7, align 8, !tbaa !16
  %27 = load i64, ptr %7, align 8, !tbaa !16
  %28 = icmp eq i64 %27, -1
  br i1 %28, label %29, label %33

29:                                               ; preds = %22
  %30 = call ptr @PyErr_Occurred()
  %31 = icmp ne ptr %30, null
  br i1 %31, label %32, label %33

32:                                               ; preds = %29
  call void @PyErr_Clear()
  br label %81

33:                                               ; preds = %29, %22
  %34 = load ptr, ptr %4, align 8, !tbaa !4
  %35 = getelementptr inbounds nuw %struct.rangeobject, ptr %34, i32 0, i32 3
  %36 = load ptr, ptr %35, align 8, !tbaa !14
  %37 = call i64 @PyLong_AsLong(ptr noundef %36)
  store i64 %37, ptr %8, align 8, !tbaa !16
  %38 = load i64, ptr %8, align 8, !tbaa !16
  %39 = icmp eq i64 %38, -1
  br i1 %39, label %40, label %44

40:                                               ; preds = %33
  %41 = call ptr @PyErr_Occurred()
  %42 = icmp ne ptr %41, null
  br i1 %42, label %43, label %44

43:                                               ; preds = %40
  call void @PyErr_Clear()
  br label %81

44:                                               ; preds = %40, %33
  %45 = load i64, ptr %6, align 8, !tbaa !16
  %46 = load i64, ptr %7, align 8, !tbaa !16
  %47 = load i64, ptr %8, align 8, !tbaa !16
  %48 = call i64 @get_len_of_range(i64 noundef %45, i64 noundef %46, i64 noundef %47)
  store i64 %48, ptr %9, align 8, !tbaa !16
  %49 = load i64, ptr %9, align 8, !tbaa !16
  %50 = icmp ugt i64 %49, 9223372036854775807
  br i1 %50, label %51, label %52

51:                                               ; preds = %44
  br label %81

52:                                               ; preds = %44
  %53 = load i64, ptr %9, align 8, !tbaa !16
  %54 = icmp ne i64 %53, 0
  br i1 %54, label %55, label %75

55:                                               ; preds = %52
  %56 = load i64, ptr %8, align 8, !tbaa !16
  %57 = icmp sgt i64 %56, 0
  br i1 %57, label %58, label %66

58:                                               ; preds = %55
  %59 = load i64, ptr %7, align 8, !tbaa !16
  %60 = load i64, ptr %8, align 8, !tbaa !16
  %61 = sub i64 %60, 1
  %62 = sub i64 9223372036854775807, %61
  %63 = icmp sgt i64 %59, %62
  br i1 %63, label %64, label %65

64:                                               ; preds = %58
  br label %81

65:                                               ; preds = %58
  br label %74

66:                                               ; preds = %55
  %67 = load i64, ptr %7, align 8, !tbaa !16
  %68 = load i64, ptr %8, align 8, !tbaa !16
  %69 = sub i64 -1, %68
  %70 = add i64 -9223372036854775808, %69
  %71 = icmp slt i64 %67, %70
  br i1 %71, label %72, label %73

72:                                               ; preds = %66
  br label %81

73:                                               ; preds = %66
  br label %74

74:                                               ; preds = %73, %65
  br label %75

75:                                               ; preds = %74, %52
  %76 = load i64, ptr %6, align 8, !tbaa !16
  %77 = load i64, ptr %7, align 8, !tbaa !16
  %78 = load i64, ptr %8, align 8, !tbaa !16
  %79 = load i64, ptr %9, align 8, !tbaa !16
  %80 = call ptr @fast_range_iter(i64 noundef %76, i64 noundef %77, i64 noundef %78, i64 noundef %79)
  store ptr %80, ptr %2, align 8
  store i32 1, ptr %10, align 4
  br label %106

81:                                               ; preds = %72, %64, %51, %43, %32, %21
  %82 = call ptr @_PyObject_New(ptr noundef @PyLongRangeIter_Type)
  store ptr %82, ptr %5, align 8, !tbaa !4
  %83 = load ptr, ptr %5, align 8, !tbaa !4
  %84 = icmp eq ptr %83, null
  br i1 %84, label %85, label %86

85:                                               ; preds = %81
  store ptr null, ptr %2, align 8
  store i32 1, ptr %10, align 4
  br label %106

86:                                               ; preds = %81
  %87 = load ptr, ptr %4, align 8, !tbaa !4
  %88 = getelementptr inbounds nuw %struct.rangeobject, ptr %87, i32 0, i32 1
  %89 = load ptr, ptr %88, align 8, !tbaa !8
  %90 = call ptr @_Py_NewRef(ptr noundef %89)
  %91 = load ptr, ptr %5, align 8, !tbaa !4
  %92 = getelementptr inbounds nuw %struct.longrangeiterobject, ptr %91, i32 0, i32 1
  store ptr %90, ptr %92, align 8, !tbaa !21
  %93 = load ptr, ptr %4, align 8, !tbaa !4
  %94 = getelementptr inbounds nuw %struct.rangeobject, ptr %93, i32 0, i32 3
  %95 = load ptr, ptr %94, align 8, !tbaa !14
  %96 = call ptr @_Py_NewRef(ptr noundef %95)
  %97 = load ptr, ptr %5, align 8, !tbaa !4
  %98 = getelementptr inbounds nuw %struct.longrangeiterobject, ptr %97, i32 0, i32 2
  store ptr %96, ptr %98, align 8, !tbaa !23
  %99 = load ptr, ptr %4, align 8, !tbaa !4
  %100 = getelementptr inbounds nuw %struct.rangeobject, ptr %99, i32 0, i32 4
  %101 = load ptr, ptr %100, align 8, !tbaa !15
  %102 = call ptr @_Py_NewRef(ptr noundef %101)
  %103 = load ptr, ptr %5, align 8, !tbaa !4
  %104 = getelementptr inbounds nuw %struct.longrangeiterobject, ptr %103, i32 0, i32 3
  store ptr %102, ptr %104, align 8, !tbaa !24
  %105 = load ptr, ptr %5, align 8, !tbaa !4
  store ptr %105, ptr %2, align 8
  store i32 1, ptr %10, align 4
  br label %106

106:                                              ; preds = %86, %85, %75
  call void @llvm.lifetime.end.p0(i64 8, ptr %9) #5
  call void @llvm.lifetime.end.p0(i64 8, ptr %8) #5
  call void @llvm.lifetime.end.p0(i64 8, ptr %7) #5
  call void @llvm.lifetime.end.p0(i64 8, ptr %6) #5
  call void @llvm.lifetime.end.p0(i64 8, ptr %5) #5
  call void @llvm.lifetime.end.p0(i64 8, ptr %4) #5
  %107 = load ptr, ptr %2, align 8
  ret ptr %107
}