; Function Attrs: nounwind uwtable
define internal ptr @range_iter(ptr noundef readonly captures(none) %0) #0 {
  %2 = getelementptr inbounds nuw i8, ptr %0, i64 16
  %3 = load ptr, ptr %2, align 8, !tbaa !4
  %4 = tail call i64 @PyLong_AsLong(ptr noundef %3) #6
  %5 = icmp eq i64 %4, -1
  br i1 %5, label %6, label %8

6:                                                ; preds = %1
  %7 = tail call ptr @PyErr_Occurred() #6
  %.not = icmp eq ptr %7, null
  br i1 %.not, label %8, label %.sink.split

8:                                                ; preds = %6, %1
  %9 = getelementptr inbounds nuw i8, ptr %0, i64 24
  %10 = load ptr, ptr %9, align 8, !tbaa !13
  %11 = tail call i64 @PyLong_AsLong(ptr noundef %10) #6
  %12 = icmp eq i64 %11, -1
  br i1 %12, label %13, label %15

13:                                               ; preds = %8
  %14 = tail call ptr @PyErr_Occurred() #6
  %.not32 = icmp eq ptr %14, null
  br i1 %.not32, label %15, label %.sink.split

15:                                               ; preds = %13, %8
  %16 = getelementptr inbounds nuw i8, ptr %0, i64 32
  %17 = load ptr, ptr %16, align 8, !tbaa !14
  %18 = tail call i64 @PyLong_AsLong(ptr noundef %17) #6
  %19 = icmp eq i64 %18, -1
  br i1 %19, label %36, label %.split

.split:                                           ; preds = %15
  %20 = icmp sgt i64 %18, 0
  %21 = icmp slt i64 %4, %11
  %or.cond.i = and i1 %21, %20
  br i1 %or.cond.i, label %22, label %27

22:                                               ; preds = %.split
  %23 = xor i64 %4, -1
  %24 = add i64 %11, %23
  %25 = udiv i64 %24, %18
  %26 = add i64 %25, 1
  br label %get_len_of_range.exit

27:                                               ; preds = %.split
  %28 = icmp slt i64 %18, 0
  %29 = icmp sgt i64 %4, %11
  %or.cond18.i = and i1 %29, %28
  br i1 %or.cond18.i, label %30, label %.thread

30:                                               ; preds = %27
  %31 = xor i64 %11, -1
  %32 = add i64 %4, %31
  %33 = sub i64 0, %18
  %34 = udiv i64 %32, %33
  %35 = add nuw i64 %34, 1
  br label %get_len_of_range.exit

36:                                               ; preds = %15
  %37 = tail call ptr @PyErr_Occurred() #6
  %.not33 = icmp eq ptr %37, null
  br i1 %.not33, label %.split29, label %.sink.split

.split29:                                         ; preds = %36
  %38 = icmp sgt i64 %4, %11
  br i1 %38, label %39, label %.thread

39:                                               ; preds = %.split29
  %40 = sub i64 %4, %11
  br label %get_len_of_range.exit

get_len_of_range.exit:                            ; preds = %39, %30, %22
  %phi.call = phi i64 [ %26, %22 ], [ %35, %30 ], [ %40, %39 ]
  %41 = icmp slt i64 %phi.call, 0
  br i1 %41, label %57, label %42

42:                                               ; preds = %get_len_of_range.exit
  %.not34 = icmp eq i64 %phi.call, 0
  br i1 %.not34, label %.thread, label %43

43:                                               ; preds = %42
  %44 = icmp sgt i64 %18, 0
  br i1 %44, label %45, label %48

45:                                               ; preds = %43
  %46 = sub nuw i64 -9223372036854775808, %18
  %47 = icmp sgt i64 %11, %46
  br i1 %47, label %57, label %.thread

48:                                               ; preds = %43
  %49 = sub i64 9223372036854775807, %18
  %50 = icmp slt i64 %11, %49
  br i1 %50, label %57, label %.thread

.thread:                                          ; preds = %27, %.split29, %45, %48, %42
  %phi.call4245 = phi i64 [ %phi.call, %45 ], [ %phi.call, %48 ], [ 0, %42 ], [ 0, %.split29 ], [ 0, %27 ]
  %51 = tail call ptr @_PyObject_New(ptr noundef nonnull @PyRangeIter_Type) #6
  %52 = icmp eq ptr %51, null
  br i1 %52, label %fast_range_iter.exit, label %53

53:                                               ; preds = %.thread
  %54 = getelementptr inbounds nuw i8, ptr %51, i64 16
  store i64 %4, ptr %54, align 8, !tbaa !18
  %55 = getelementptr inbounds nuw i8, ptr %51, i64 24
  store i64 %18, ptr %55, align 8, !tbaa !21
  %56 = getelementptr inbounds nuw i8, ptr %51, i64 32
  store i64 %phi.call4245, ptr %56, align 8, !tbaa !22
  br label %fast_range_iter.exit

.sink.split:                                      ; preds = %36, %13, %6
  tail call void @PyErr_Clear() #6
  br label %57

57:                                               ; preds = %.sink.split, %48, %45, %get_len_of_range.exit
  %58 = tail call ptr @_PyObject_New(ptr noundef nonnull @PyLongRangeIter_Type) #6
  %59 = icmp eq ptr %58, null
  br i1 %59, label %fast_range_iter.exit, label %60

60:                                               ; preds = %57
  %61 = load ptr, ptr %2, align 8, !tbaa !4
  %62 = load i32, ptr %61, align 8, !tbaa !12
  %63 = icmp slt i32 %62, 0
  br i1 %63, label %_Py_NewRef.exit, label %64

64:                                               ; preds = %60
  %65 = add nuw i32 %62, 1
  store i32 %65, ptr %61, align 8, !tbaa !12
  br label %_Py_NewRef.exit

_Py_NewRef.exit:                                  ; preds = %60, %64
  %66 = getelementptr inbounds nuw i8, ptr %58, i64 16
  store ptr %61, ptr %66, align 8, !tbaa !23
  %67 = getelementptr inbounds nuw i8, ptr %0, i64 32
  %68 = load ptr, ptr %67, align 8, !tbaa !14
  %69 = load i32, ptr %68, align 8, !tbaa !12
  %70 = icmp slt i32 %69, 0
  br i1 %70, label %_Py_NewRef.exit39, label %71

71:                                               ; preds = %_Py_NewRef.exit
  %72 = add nuw i32 %69, 1
  store i32 %72, ptr %68, align 8, !tbaa !12
  br label %_Py_NewRef.exit39

_Py_NewRef.exit39:                                ; preds = %_Py_NewRef.exit, %71
  %73 = getelementptr inbounds nuw i8, ptr %58, i64 24
  store ptr %68, ptr %73, align 8, !tbaa !25
  %74 = getelementptr inbounds nuw i8, ptr %0, i64 40
  %75 = load ptr, ptr %74, align 8, !tbaa !15
  %76 = load i32, ptr %75, align 8, !tbaa !12
  %77 = icmp slt i32 %76, 0
  br i1 %77, label %_Py_NewRef.exit40, label %78

78:                                               ; preds = %_Py_NewRef.exit39
  %79 = add nuw i32 %76, 1
  store i32 %79, ptr %75, align 8, !tbaa !12
  br label %_Py_NewRef.exit40

_Py_NewRef.exit40:                                ; preds = %_Py_NewRef.exit39, %78
  %80 = getelementptr inbounds nuw i8, ptr %58, i64 32
  store ptr %75, ptr %80, align 8, !tbaa !26
  br label %fast_range_iter.exit

fast_range_iter.exit:                             ; preds = %53, %.thread, %57, %_Py_NewRef.exit40
  %.0 = phi ptr [ %58, %_Py_NewRef.exit40 ], [ null, %57 ], [ null, %.thread ], [ %51, %53 ]
  ret ptr %.0
}